; Function Attrs: nounwind uwtable
define dso_local i32 @poll_fd(i32 noundef %0, i32 noundef %1, i32 noundef %2) local_unnamed_addr #0 {
  %4 = alloca %struct.fd_data, align 8
  call void @llvm.memset.p0.i64(ptr noundef nonnull align 8 dereferenceable(40) %4, i8 0, i64 40, i1 false)
  %5 = call i32 @fds_add(ptr noundef nonnull %4, i32 noundef %0, i32 noundef 1, i32 noundef %1), !range !5
  %6 = icmp eq i32 %5, -1
  br i1 %6, label %fds_free.exit, label %.preheader

.preheader:                                       ; preds = %3, %9
  %7 = call i32 @fds_poll_recv(ptr noundef nonnull %4, i32 noundef %1, i32 noundef %2, ptr poison)
  %8 = icmp eq i32 %7, -1
  br i1 %8, label %9, label %.critedge

9:                                                ; preds = %.preheader
  %10 = tail call ptr @__errno_location() #27
  %11 = load i32, ptr %10, align 4
  %12 = icmp eq i32 %11, 4
  br i1 %12, label %.preheader, label %.critedge

.critedge:                                        ; preds = %.preheader, %9
  %.val20.i = load ptr, ptr %4, align 8
  %.not.i.i = icmp eq ptr %.val20.i, null
  br i1 %.not.i.i, label %fds_lock.exit.i, label %13

13:                                               ; preds = %.critedge
  %14 = tail call i32 @pthread_mutex_lock(ptr noundef nonnull %.val20.i) #21
  br label %fds_lock.exit.i

fds_lock.exit.i:                                  ; preds = %13, %.critedge
  %15 = getelementptr inbounds i8, ptr %4, i64 16
  %16 = load i64, ptr %15, align 8
  %.not23.i = icmp eq i64 %16, 0
  %.phi.trans.insert = getelementptr inbounds i8, ptr %4, i64 8
  %.pre = load ptr, ptr %.phi.trans.insert, align 8
  br i1 %.not23.i, label %._crit_edge.i, label %.lr.ph.i

.lr.ph.i:                                         ; preds = %fds_lock.exit.i, %21
  %17 = phi i64 [ %23, %21 ], [ 0, %fds_lock.exit.i ]
  %.022.i = phi i32 [ %22, %21 ], [ 0, %fds_lock.exit.i ]
  %18 = getelementptr inbounds %struct.fd_buf, ptr %.pre, i64 %17
  %19 = load ptr, ptr %18, align 8
  %.not19.i = icmp eq ptr %19, null
  br i1 %.not19.i, label %21, label %20

20:                                               ; preds = %.lr.ph.i
  tail call void @free(ptr noundef nonnull %19) #21
  br label %21

21:                                               ; preds = %20, %.lr.ph.i
  %22 = add i32 %.022.i, 1
  %23 = zext i32 %22 to i64
  %24 = icmp ugt i64 %16, %23
  br i1 %24, label %.lr.ph.i, label %._crit_edge.i.thread

._crit_edge.i.thread:                             ; preds = %21
  %25 = getelementptr inbounds i8, ptr %4, i64 8
  br label %27

._crit_edge.i:                                    ; preds = %fds_lock.exit.i
  %26 = getelementptr inbounds i8, ptr %4, i64 8
  %.not.i = icmp eq ptr %.pre, null
  br i1 %.not.i, label %29, label %27

27:                                               ; preds = %._crit_edge.i.thread, %._crit_edge.i
  %28 = phi ptr [ %25, %._crit_edge.i.thread ], [ %26, %._crit_edge.i ]
  tail call void @free(ptr noundef nonnull %.pre) #21
  br label %29

29:                                               ; preds = %27, %._crit_edge.i
  %30 = phi ptr [ %28, %27 ], [ %26, %._crit_edge.i ]
  %31 = getelementptr inbounds i8, ptr %4, i64 24
  %32 = load ptr, ptr %31, align 8
  %.not18.i = icmp eq ptr %32, null
  br i1 %.not18.i, label %34, label %33

33:                                               ; preds = %29
  tail call void @free(ptr noundef nonnull %32) #21
  br label %34

34:                                               ; preds = %33, %29
  call void @llvm.memset.p0.i64(ptr noundef nonnull align 8 dereferenceable(16) %30, i8 0, i64 16, i1 false)
  br i1 %.not.i.i, label %fds_free.exit, label %35

35:                                               ; preds = %34
  %36 = tail call i32 @pthread_mutex_unlock(ptr noundef nonnull %.val20.i) #21
  br label %fds_free.exit

fds_free.exit:                                    ; preds = %35, %34, %3
  %.0 = phi i32 [ -1, %3 ], [ %7, %34 ], [ %7, %35 ]
  ret i32 %.0
}